target datalayout = "e-m:e-p270:32:32-p271:32:32-p272:64:64-i64:64-i128:128-f80:128-n8:16:32:64-S128"
target triple = "x86_64-unknown-linux-gnu"

%struct.QTailQLink = type { ptr, ptr }
%struct.BlockDriverState = type { i32, i8, i8, i8, i8, i8, ptr, ptr, ptr, %struct.anon.0, i8, [4096 x i8], [4096 x i8], [4096 x i8], [16 x i8], ptr, [4096 x i8], %struct.BlockLimits, i32, i32, i32, i32, [32 x i8], %union.anon, %union.anon.1, %union.anon.2, i32, [16 x %struct.anon.3], ptr, %struct.anon.4, ptr, ptr, %struct.anon.5, ptr, ptr, i32, ptr, i64, i64, %struct.QemuMutex, %struct.anon.6, %struct.Stat64, i32, i32, i32, i32, i32, i32, %struct.QemuMutex, %struct.anon.7, %struct.CoQueue, i8, i32, i8, %struct.CoMutex, ptr, ptr }
%struct.anon.0 = type { ptr }
%struct.BlockLimits = type { i32, i64, i32, i64, i32, i32, i32, i64, i32, i64, i64, i32, i8, i32, i32, i32, i32, i32, i32, i32 }
%union.anon = type { %struct.QTailQLink }
%union.anon.1 = type { %struct.QTailQLink }
%union.anon.2 = type { %struct.QTailQLink }
%struct.anon.3 = type { ptr }
%struct.anon.4 = type { ptr }
%struct.anon.5 = type { ptr }
%struct.anon.6 = type { ptr }
%struct.Stat64 = type { i64 }
%struct.QemuMutex = type { %union.pthread_mutex_t, i8 }
%union.pthread_mutex_t = type { %struct.__pthread_mutex_s }
%struct.__pthread_mutex_s = type { i32, i32, i32, i32, i32, i16, i16, %struct.__pthread_internal_list }
%struct.__pthread_internal_list = type { ptr, ptr }
%struct.anon.7 = type { ptr }
%struct.CoQueue = type { %struct.anon.8 }
%struct.anon.8 = type { ptr, ptr }
%struct.CoMutex = type { i32, ptr, %struct.anon.9, %struct.anon.9, i32, i32, ptr }
%struct.anon.9 = type { ptr }
%struct.BDRVQuorumState = type { ptr, i32, i32, i32, i8, i8, i32 }
%struct.BdrvChild = type { ptr, ptr, ptr, i32, ptr, i64, i64, i8, i8, %struct.anon.10, %struct.anon.11 }
%struct.anon.10 = type { ptr, ptr }
%struct.anon.11 = type { ptr, ptr }

; Function Attrs: nounwind sspstrong uwtable
define internal zeroext i1 @quorum_recurse_can_replace(ptr noundef %bs, ptr noundef %to_replace) #0 {
entry:
  %retval = alloca i1, align 1
  %bs.addr = alloca ptr, align 8
  %to_replace.addr = alloca ptr, align 8
  %s = alloca ptr, align 8
  %i = alloca i32, align 4
  store ptr %bs, ptr %bs.addr, align 8
  store ptr %to_replace, ptr %to_replace.addr, align 8
  %0 = load ptr, ptr %bs.addr, align 8
  %opaque = getelementptr inbounds %struct.BlockDriverState, ptr %0, i32 0, i32 7
  %1 = load ptr, ptr %opaque, align 8
  store ptr %1, ptr %s, align 8
  store i32 0, ptr %i, align 4
  br label %for.cond

for.cond:                                         ; preds = %for.inc, %entry
  %2 = load i32, ptr %i, align 4
  %3 = load ptr, ptr %s, align 8
  %num_children = getelementptr inbounds %struct.BDRVQuorumState, ptr %3, i32 0, i32 1
  %4 = load i32, ptr %num_children, align 8
  %cmp = icmp slt i32 %2, %4
  br i1 %cmp, label %for.body, label %for.end

for.body:                                         ; preds = %for.cond
  %5 = load ptr, ptr %s, align 8
  %children = getelementptr inbounds %struct.BDRVQuorumState, ptr %5, i32 0, i32 0
  %6 = load ptr, ptr %children, align 8
  %7 = load i32, ptr %i, align 4
  %idxprom = sext i32 %7 to i64
  %arrayidx = getelementptr ptr, ptr %6, i64 %idxprom
  %8 = load ptr, ptr %arrayidx, align 8
  %bs1 = getelementptr inbounds %struct.BdrvChild, ptr %8, i32 0, i32 0
  %9 = load ptr, ptr %bs1, align 8
  %10 = load ptr, ptr %to_replace.addr, align 8
  %cmp2 = icmp eq ptr %9, %10
  br i1 %cmp2, label %if.then, label %if.end

if.then:                                          ; preds = %for.body
  %11 = load ptr, ptr %to_replace.addr, align 8
  %parents = getelementptr inbounds %struct.BlockDriverState, ptr %11, i32 0, i32 32
  %lh_first = getelementptr inbounds %struct.anon.5, ptr %parents, i32 0, i32 0
  %12 = load ptr, ptr %lh_first, align 8
  %13 = load ptr, ptr %s, align 8
  %children3 = getelementptr inbounds %struct.BDRVQuorumState, ptr %13, i32 0, i32 0
  %14 = load ptr, ptr %children3, align 8
  %15 = load i32, ptr %i, align 4
  %idxprom4 = sext i32 %15 to i64
  %arrayidx5 = getelementptr ptr, ptr %14, i64 %idxprom4
  %16 = load ptr, ptr %arrayidx5, align 8
  %cmp6 = icmp eq ptr %12, %16
  br i1 %cmp6, label %land.rhs, label %land.end

land.rhs:                                         ; preds = %if.then
  %17 = load ptr, ptr %s, align 8
  %children7 = getelementptr inbounds %struct.BDRVQuorumState, ptr %17, i32 0, i32 0
  %18 = load ptr, ptr %children7, align 8
  %19 = load i32, ptr %i, align 4
  %idxprom8 = sext i32 %19 to i64
  %arrayidx9 = getelementptr ptr, ptr %18, i64 %idxprom8
  %20 = load ptr, ptr %arrayidx9, align 8
  %next_parent = getelementptr inbounds %struct.BdrvChild, ptr %20, i32 0, i32 10
  %le_next = getelementptr inbounds %struct.anon.11, ptr %next_parent, i32 0, i32 0
  %21 = load ptr, ptr %le_next, align 8
  %cmp10 = icmp eq ptr %21, null
  br label %land.end

land.end:                                         ; preds = %land.rhs, %if.then
  %22 = phi i1 [ false, %if.then ], [ %cmp10, %land.rhs ]
  store i1 %22, ptr %retval, align 1
  br label %return

if.end:                                           ; preds = %for.body
  br label %for.inc

for.inc:                                          ; preds = %if.end
  %23 = load i32, ptr %i, align 4
  %inc = add i32 %23, 1
  store i32 %inc, ptr %i, align 4
  br label %for.cond, !llvm.loop !5

for.end:                                          ; preds = %for.cond
  store i1 false, ptr %retval, align 1
  br label %return

return:                                           ; preds = %for.end, %land.end
  %24 = load i1, ptr %retval, align 1
  ret i1 %24
}