; Function Attrs: nofree norecurse nosync nounwind sspstrong memory(read, inaccessiblemem: none) uwtable
define internal zeroext i1 @quorum_recurse_can_replace(ptr noundef readonly captures(none) %bs, ptr noundef readonly %to_replace) #2 {
entry:
  %opaque = getelementptr inbounds nuw i8, ptr %bs, i64 24
  %0 = load ptr, ptr %opaque, align 8
  %num_children = getelementptr inbounds nuw i8, ptr %0, i64 8
  %1 = load i32, ptr %num_children, align 8
  %cmp9 = icmp sgt i32 %1, 0
  br i1 %cmp9, label %for.body.lr.ph, label %return

for.body.lr.ph:                                   ; preds = %entry
  %2 = load ptr, ptr %0, align 8
  %wide.trip.count = zext nneg i32 %1 to i64
  br label %for.body

for.cond:                                         ; preds = %for.body
  %indvars.iv.next = add nuw nsw i64 %indvars.iv, 1
  %exitcond.not = icmp eq i64 %indvars.iv.next, %wide.trip.count
  br i1 %exitcond.not, label %return, label %for.body, !llvm.loop !5

for.body:                                         ; preds = %for.body.lr.ph, %for.cond
  %indvars.iv = phi i64 [ 0, %for.body.lr.ph ], [ %indvars.iv.next, %for.cond ]
  %arrayidx = getelementptr ptr, ptr %2, i64 %indvars.iv
  %3 = load ptr, ptr %arrayidx, align 8
  %4 = load ptr, ptr %3, align 8
  %cmp2 = icmp eq ptr %4, %to_replace
  br i1 %cmp2, label %if.then, label %for.cond

if.then:                                          ; preds = %for.body
  %parents = getelementptr inbounds nuw i8, ptr %to_replace, i64 16848
  %5 = load ptr, ptr %parents, align 8
  %cmp6 = icmp eq ptr %5, %3
  br i1 %cmp6, label %land.rhs, label %return

land.rhs:                                         ; preds = %if.then
  %next_parent = getelementptr inbounds nuw i8, ptr %3, i64 80
  %6 = load ptr, ptr %next_parent, align 8
  %cmp10 = icmp eq ptr %6, null
  br label %return

return:                                           ; preds = %for.cond, %entry, %if.then, %land.rhs
  %retval.0 = phi i1 [ false, %if.then ], [ %cmp10, %land.rhs ], [ false, %entry ], [ false, %for.cond ]
  ret i1 %retval.0
}